target datalayout = "e-m:e-p270:32:32-p271:32:32-p272:64:64-i64:64-i128:128-f80:128-n8:16:32:64-S128"
target triple = "x86_64-pc-linux-gnu"

%"class.grpc_core::channelz::ChannelzRegistry" = type { %"class.absl::lts_20240722::Mutex", %"class.std::map", i64 }
%"class.absl::lts_20240722::Mutex" = type { %"struct.std::atomic" }
%"struct.std::atomic" = type { %"struct.std::__atomic_base" }
%"struct.std::__atomic_base" = type { i64 }
%"class.std::map" = type { %"class.std::_Rb_tree" }
%"class.std::_Rb_tree" = type { %"struct.std::_Rb_tree<long, std::pair<const long, grpc_core::channelz::BaseNode *>, std::_Select1st<std::pair<const long, grpc_core::channelz::BaseNode *>>, std::less<long>>::_Rb_tree_impl" }
%"struct.std::_Rb_tree<long, std::pair<const long, grpc_core::channelz::BaseNode *>, std::_Select1st<std::pair<const long, grpc_core::channelz::BaseNode *>>, std::less<long>>::_Rb_tree_impl" = type { [8 x i8], %"struct.std::_Rb_tree_header" }
%"struct.std::_Rb_tree_header" = type { %"struct.std::_Rb_tree_node_base", i64 }
%"struct.std::_Rb_tree_node_base" = type { i32, ptr, ptr, ptr }
%"class.absl::lts_20240722::MutexLock" = type { ptr }
%"class.grpc_core::channelz::BaseNode" = type { %"class.grpc_core::RefCounted", i32, i64, %"class.std::__cxx11::basic_string" }
%"class.grpc_core::RefCounted" = type { %"class.grpc_core::PolymorphicRefCount", %"class.grpc_core::RefCount" }
%"class.grpc_core::PolymorphicRefCount" = type { ptr }
%"class.grpc_core::RefCount" = type { %"struct.std::atomic" }
%"class.std::__cxx11::basic_string" = type { %"struct.std::__cxx11::basic_string<char>::_Alloc_hider", i64, %union.anon }
%"struct.std::__cxx11::basic_string<char>::_Alloc_hider" = type { ptr }
%union.anon = type { i64, [8 x i8] }

; Function Attrs: mustprogress nounwind uwtable
define linkonce_odr void @_ZN4absl12lts_202407229MutexLockD2Ev(ptr noundef nonnull align 8 dereferenceable(8) %0) unnamed_addr #10 comdat align 2 personality ptr @__gxx_personality_v0 {
  %2 = alloca ptr, align 8
  store ptr %0, ptr %2, align 8, !tbaa !35
  %3 = load ptr, ptr %2, align 8
  %4 = getelementptr inbounds nuw %"class.absl::lts_20240722::MutexLock", ptr %3, i32 0, i32 0
  %5 = load ptr, ptr %4, align 8, !tbaa !39
  invoke void @_ZN4absl12lts_202407225Mutex6UnlockEv(ptr noundef nonnull align 8 dereferenceable(8) %5)
          to label %6 unwind label %7

6:                                                ; preds = %1
  ret void

7:                                                ; preds = %1
  %8 = landingpad { ptr, i32 }
          catch ptr null
  %9 = extractvalue { ptr, i32 } %8, 0
  call void @__clang_call_terminate(ptr %9) #25
  unreachable
}

; Function Attrs: mustprogress uwtable
define linkonce_odr void @_ZN4absl12lts_202407229MutexLockC2EPNS0_5MutexE(ptr noundef nonnull align 8 dereferenceable(8) %0, ptr noundef %1) unnamed_addr #4 comdat align 2 {
  %3 = alloca ptr, align 8
  %4 = alloca ptr, align 8
  store ptr %0, ptr %3, align 8, !tbaa !35
  store ptr %1, ptr %4, align 8, !tbaa !37
  %5 = load ptr, ptr %3, align 8
  %6 = getelementptr inbounds nuw %"class.absl::lts_20240722::MutexLock", ptr %5, i32 0, i32 0
  %7 = load ptr, ptr %4, align 8, !tbaa !37
  store ptr %7, ptr %6, align 8, !tbaa !39
  %8 = getelementptr inbounds nuw %"class.absl::lts_20240722::MutexLock", ptr %5, i32 0, i32 0
  %9 = load ptr, ptr %8, align 8, !tbaa !39
  call void @_ZN4absl12lts_202407225Mutex4LockEv(ptr noundef nonnull align 8 dereferenceable(8) %9)
  ret void
}

; Function Attrs: mustprogress uwtable
define void @_ZN9grpc_core8channelz16ChannelzRegistry16InternalRegisterEPNS0_8BaseNodeE(ptr noundef nonnull align 8 dereferenceable(64) %0, ptr noundef %1) #4 align 2 personality ptr @__gxx_personality_v0 {
  %3 = alloca ptr, align 8
  %4 = alloca ptr, align 8
  %5 = alloca %"class.absl::lts_20240722::MutexLock", align 8
  %6 = alloca ptr, align 8
  %7 = alloca i32, align 4
  store ptr %0, ptr %3, align 8, !tbaa !4
  store ptr %1, ptr %4, align 8, !tbaa !24
  %8 = load ptr, ptr %3, align 8
  call void @llvm.lifetime.start.p0(i64 8, ptr %5) #3
  %9 = getelementptr inbounds nuw %"class.grpc_core::channelz::ChannelzRegistry", ptr %8, i32 0, i32 0
  call void @_ZN4absl12lts_202407229MutexLockC2EPNS0_5MutexE(ptr noundef nonnull align 8 dereferenceable(8) %5, ptr noundef %9)
  %10 = getelementptr inbounds nuw %"class.grpc_core::channelz::ChannelzRegistry", ptr %8, i32 0, i32 2
  %11 = load i64, ptr %10, align 8, !tbaa !9
  %12 = add nsw i64 %11, 1
  store i64 %12, ptr %10, align 8, !tbaa !9
  %13 = load ptr, ptr %4, align 8, !tbaa !24
  %14 = getelementptr inbounds nuw %"class.grpc_core::channelz::BaseNode", ptr %13, i32 0, i32 2
  store i64 %12, ptr %14, align 8, !tbaa !26
  %15 = load ptr, ptr %4, align 8, !tbaa !24
  %16 = getelementptr inbounds nuw %"class.grpc_core::channelz::ChannelzRegistry", ptr %8, i32 0, i32 1
  %17 = load ptr, ptr %4, align 8, !tbaa !24
  %18 = getelementptr inbounds nuw %"class.grpc_core::channelz::BaseNode", ptr %17, i32 0, i32 2
  %19 = invoke noundef nonnull align 8 dereferenceable(8) ptr @_ZNSt3mapIlPN9grpc_core8channelz8BaseNodeESt4lessIlESaISt4pairIKlS3_EEEixERS7_(ptr noundef nonnull align 8 dereferenceable(48) %16, ptr noundef nonnull align 8 dereferenceable(8) %18)
          to label %20 unwind label %21

20:                                               ; preds = %2
  store ptr %15, ptr %19, align 8, !tbaa !24
  call void @_ZN4absl12lts_202407229MutexLockD2Ev(ptr noundef nonnull align 8 dereferenceable(8) %5) #3
  call void @llvm.lifetime.end.p0(i64 8, ptr %5) #3
  ret void

21:                                               ; preds = %2
  %22 = landingpad { ptr, i32 }
          cleanup
  %23 = extractvalue { ptr, i32 } %22, 0
  store ptr %23, ptr %6, align 8
  %24 = extractvalue { ptr, i32 } %22, 1
  store i32 %24, ptr %7, align 4
  call void @_ZN4absl12lts_202407229MutexLockD2Ev(ptr noundef nonnull align 8 dereferenceable(8) %5) #3
  call void @llvm.lifetime.end.p0(i64 8, ptr %5) #3
  br label %25

25:                                               ; preds = %21
  %26 = load ptr, ptr %6, align 8
  %27 = load i32, ptr %7, align 4
  %28 = insertvalue { ptr, i32 } poison, ptr %26, 0
  %29 = insertvalue { ptr, i32 } %28, i32 %27, 1
  resume { ptr, i32 } %29
}