; Function Attrs: mustprogress uwtable
define void @_ZN9grpc_core8channelz16ChannelzRegistry16InternalRegisterEPNS0_8BaseNodeE(ptr noundef nonnull align 8 dereferenceable(64) %0, ptr noundef initializes((24, 32)) %1) local_unnamed_addr #3 align 2 personality ptr @__gxx_personality_v0 {
  tail call void @_ZN4absl12lts_202407225Mutex4LockEv(ptr noundef nonnull align 8 dereferenceable(8) %0)
  %3 = getelementptr inbounds nuw i8, ptr %0, i64 56
  %4 = load i64, ptr %3, align 8, !tbaa !16
  %5 = add nsw i64 %4, 1
  store i64 %5, ptr %3, align 8, !tbaa !16
  %6 = getelementptr inbounds nuw i8, ptr %1, i64 24
  store i64 %5, ptr %6, align 8, !tbaa !26
  %7 = getelementptr inbounds nuw i8, ptr %0, i64 8
  %8 = invoke noundef nonnull align 8 dereferenceable(8) ptr @_ZNSt3mapIlPN9grpc_core8channelz8BaseNodeESt4lessIlESaISt4pairIKlS3_EEEixERS7_(ptr noundef nonnull align 8 dereferenceable(48) %7, ptr noundef nonnull align 8 dereferenceable(8) %6)
          to label %9 unwind label %13

9:                                                ; preds = %2
  store ptr %1, ptr %8, align 8, !tbaa !35
  invoke void @_ZN4absl12lts_202407225Mutex6UnlockEv(ptr noundef nonnull align 8 dereferenceable(8) %0)
          to label %_ZN4absl12lts_202407229MutexLockD2Ev.exit unwind label %10

10:                                               ; preds = %9
  %11 = landingpad { ptr, i32 }
          catch ptr null
  %12 = extractvalue { ptr, i32 } %11, 0
  tail call void @__clang_call_terminate(ptr %12) #30
  unreachable

_ZN4absl12lts_202407229MutexLockD2Ev.exit:        ; preds = %9
  ret void

13:                                               ; preds = %2
  %14 = landingpad { ptr, i32 }
          cleanup
  invoke void @_ZN4absl12lts_202407225Mutex6UnlockEv(ptr noundef nonnull align 8 dereferenceable(8) %0)
          to label %_ZN4absl12lts_202407229MutexLockD2Ev.exit5 unwind label %15

15:                                               ; preds = %13
  %16 = landingpad { ptr, i32 }
          catch ptr null
  %17 = extractvalue { ptr, i32 } %16, 0
  tail call void @__clang_call_terminate(ptr %17) #30
  unreachable

_ZN4absl12lts_202407229MutexLockD2Ev.exit5:       ; preds = %13
  resume { ptr, i32 } %14
}